; Function Attrs: mustprogress uwtable
define noundef ptr @_ZN6GLArea2mwEv(ptr nocapture noundef nonnull readonly align 8 dereferenceable(1676) %0) local_unnamed_addr #9 align 2 {
  br label %2

2:                                                ; preds = %2, %1
  %.pn4 = phi ptr [ %0, %1 ], [ %.0, %2 ]
  %.pn.in = getelementptr inbounds i8, ptr %.pn4, i64 8
  %.pn = load ptr, ptr %.pn.in, align 8
  %.0.in = getelementptr inbounds i8, ptr %.pn, i64 16
  %.0 = load ptr, ptr %.0.in, align 8
  %3 = tail call noundef ptr @_ZNK11QMetaObject4castEP7QObject(ptr noundef nonnull align 8 dereferenceable(48) @_ZN10MainWindow16staticMetaObjectE, ptr noundef %.0)
  %4 = icmp eq ptr %3, null
  br i1 %4, label %2, label %5, !llvm.loop !10

5:                                                ; preds = %2
  %6 = tail call noundef ptr @_ZNK11QMetaObject4castEP7QObject(ptr noundef nonnull align 8 dereferenceable(48) @_ZN10MainWindow16staticMetaObjectE, ptr noundef %.0)
  ret ptr %6
}